target datalayout = "e-m:e-p270:32:32-p271:32:32-p272:64:64-i64:64-i128:128-f80:128-n8:16:32:64-S128"
target triple = "x86_64-pc-linux-gnu"

; Function Attrs: inlinehint nounwind uwtable
define internal float @hwloc__pci_link_speed(i32 noundef %0, i32 noundef %1) #5 {
  %3 = alloca i32, align 4
  %4 = alloca i32, align 4
  %5 = alloca float, align 4
  store i32 %0, ptr %3, align 4, !tbaa !40
  store i32 %1, ptr %4, align 4, !tbaa !40
  call void @llvm.lifetime.start.p0(i64 4, ptr %5) #12
  %6 = load i32, ptr %3, align 4, !tbaa !40
  %7 = icmp ule i32 %6, 2
  br i1 %7, label %8, label %13

8:                                                ; preds = %2
  %9 = load i32, ptr %3, align 4, !tbaa !40
  %10 = uitofp i32 %9 to float
  %11 = fmul float 2.500000e+00, %10
  %12 = fmul float %11, 0x3FE99999A0000000
  store float %12, ptr %5, align 4, !tbaa !103
  br label %33

13:                                               ; preds = %2
  %14 = load i32, ptr %3, align 4, !tbaa !40
  %15 = icmp ule i32 %14, 5
  br i1 %15, label %16, label %24

16:                                               ; preds = %13
  %17 = load i32, ptr %3, align 4, !tbaa !40
  %18 = sub i32 %17, 3
  %19 = shl i32 1, %18
  %20 = sitofp i32 %19 to float
  %21 = fmul float 8.000000e+00, %20
  %22 = fmul float %21, 1.280000e+02
  %23 = fdiv float %22, 1.300000e+02
  store float %23, ptr %5, align 4, !tbaa !103
  br label %32

24:                                               ; preds = %13
  %25 = load i32, ptr %3, align 4, !tbaa !40
  %26 = sub i32 %25, 3
  %27 = shl i32 1, %26
  %28 = sitofp i32 %27 to float
  %29 = fmul float 8.000000e+00, %28
  %30 = fmul float %29, 2.420000e+02
  %31 = fdiv float %30, 2.560000e+02
  store float %31, ptr %5, align 4, !tbaa !103
  br label %32

32:                                               ; preds = %24, %16
  br label %33

33:                                               ; preds = %32, %8
  %34 = load float, ptr %5, align 4, !tbaa !103
  %35 = load i32, ptr %4, align 4, !tbaa !40
  %36 = uitofp i32 %35 to float
  %37 = fmul float %34, %36
  %38 = fdiv float %37, 8.000000e+00
  call void @llvm.lifetime.end.p0(i64 4, ptr %5) #12
  ret float %38
}

; Function Attrs: nounwind uwtable
define i32 @hwloc_pcidisc_find_linkspeed(ptr noundef %0, i32 noundef %1, ptr noundef %2) #0 {
  %4 = alloca ptr, align 8
  %5 = alloca i32, align 4
  %6 = alloca ptr, align 8
  %7 = alloca i32, align 4
  %8 = alloca i32, align 4
  %9 = alloca i32, align 4
  store ptr %0, ptr %4, align 8, !tbaa !38
  store i32 %1, ptr %5, align 4, !tbaa !40
  store ptr %2, ptr %6, align 8, !tbaa !101
  call void @llvm.lifetime.start.p0(i64 4, ptr %7) #12
  call void @llvm.lifetime.start.p0(i64 4, ptr %8) #12
  call void @llvm.lifetime.start.p0(i64 4, ptr %9) #12
  %10 = load ptr, ptr %4, align 8, !tbaa !38
  %11 = load i32, ptr %5, align 4, !tbaa !40
  %12 = add i32 %11, 18
  %13 = zext i32 %12 to i64
  %14 = getelementptr inbounds nuw i8, ptr %10, i64 %13
  call void @llvm.memcpy.p0.p0.i64(ptr align 4 %7, ptr align 1 %14, i64 4, i1 false)
  %15 = load i32, ptr %7, align 4, !tbaa !40
  %16 = and i32 %15, 15
  store i32 %16, ptr %8, align 4, !tbaa !40
  %17 = load i32, ptr %7, align 4, !tbaa !40
  %18 = and i32 %17, 1008
  %19 = lshr i32 %18, 4
  store i32 %19, ptr %9, align 4, !tbaa !40
  %20 = load i32, ptr %8, align 4, !tbaa !40
  %21 = load i32, ptr %9, align 4, !tbaa !40
  %22 = call float @hwloc__pci_link_speed(i32 noundef %20, i32 noundef %21)
  %23 = load ptr, ptr %6, align 8, !tbaa !101
  store float %22, ptr %23, align 4, !tbaa !103
  call void @llvm.lifetime.end.p0(i64 4, ptr %9) #12
  call void @llvm.lifetime.end.p0(i64 4, ptr %8) #12
  call void @llvm.lifetime.end.p0(i64 4, ptr %7) #12
  ret i32 0
}