; Function Attrs: mustprogress nofree norecurse nosync nounwind willreturn memory(argmem: readwrite) uwtable
define noundef i32 @hwloc_pcidisc_find_linkspeed(ptr noundef readonly captures(none) %0, i32 noundef %1, ptr noundef writeonly captures(none) initializes((0, 4)) %2) local_unnamed_addr #12 {
  %4 = add i32 %1, 18
  %5 = zext i32 %4 to i64
  %6 = getelementptr inbounds nuw i8, ptr %0, i64 %5
  %.0.copyload = load i32, ptr %6, align 1
  %7 = and i32 %.0.copyload, 15
  %8 = icmp samesign ult i32 %7, 3
  br i1 %8, label %9, label %13

9:                                                ; preds = %3
  %10 = uitofp nneg i32 %7 to float
  %11 = fmul float %10, 2.500000e+00
  %12 = fmul float %11, 0x3FE99999A0000000
  br label %hwloc__pci_link_speed.exit

13:                                               ; preds = %3
  %14 = icmp samesign ult i32 %7, 6
  %15 = add nsw i32 %7, -3
  %16 = shl nuw nsw i32 1, %15
  %17 = uitofp nneg i32 %16 to float
  %18 = fmul float %17, 8.000000e+00
  br i1 %14, label %19, label %22

19:                                               ; preds = %13
  %20 = fmul float %18, 1.280000e+02
  %21 = fdiv float %20, 1.300000e+02
  br label %hwloc__pci_link_speed.exit

22:                                               ; preds = %13
  %23 = fmul float %18, 2.420000e+02
  %24 = fmul float %23, 3.906250e-03
  br label %hwloc__pci_link_speed.exit

hwloc__pci_link_speed.exit:                       ; preds = %9, %19, %22
  %.0.i = phi float [ %12, %9 ], [ %21, %19 ], [ %24, %22 ]
  %25 = lshr i32 %.0.copyload, 4
  %26 = and i32 %25, 63
  %27 = uitofp nneg i32 %26 to float
  %28 = fmul float %.0.i, %27
  %29 = fmul float %28, 1.250000e-01
  store float %29, ptr %2, align 4, !tbaa !97
  ret i32 0
}